target datalayout = "e-m:e-p270:32:32-p271:32:32-p272:64:64-i64:64-i128:128-f80:128-n8:16:32:64-S128"
target triple = "x86_64-pc-linux-gnu"

%union.SourceSpan = type { i64 }
%struct.Expr_ = type { ptr, %union.SourceSpan, i16, %union.anon.61 }
%union.anon.61 = type { %struct.ExprAnySwitch }
%struct.ExprAnySwitch = type { i8, %union.anon.63 }
%union.anon.63 = type { %struct.anon.64 }
%struct.anon.64 = type { ptr, %union.SourceSpan, ptr }
%struct.Decl_ = type { ptr, ptr, %union.SourceSpan, i64, %union.anon, i32, %union.anon.0, i64, ptr, ptr, ptr, %union.anon.1 }
%union.anon = type { ptr }
%union.anon.0 = type { i16 }
%union.anon.1 = type { %struct.FuncDecl }
%struct.FuncDecl = type { i32, [4 x i8], %struct.Signature_, i32, i32, %union.anon.8 }
%struct.Signature_ = type <{ %struct.CalleeAttributes, i16, i8, i32, i32, [4 x i8], ptr }>
%struct.CalleeAttributes = type { i8 }
%union.anon.8 = type { %struct.anon.9 }
%struct.anon.9 = type { i16, %union.anon.10 }
%union.anon.10 = type { ptr }
%struct.VarDecl_ = type { i32, i32, %union.anon.14, %union.anon.15 }
%union.anon.14 = type { ptr }
%union.anon.15 = type { %struct.anon.16 }
%struct.anon.16 = type { ptr, %union.SourceSpan }
%struct.ExprIdentifierRaw = type { ptr, i8, ptr }

@.str.33 = private unnamed_addr constant [36 x i8] c"FATAL ERROR %s -> in %s @ in %s:%d \00", align 1
@.str.34 = private unnamed_addr constant [22 x i8] c"Should be unreachable\00", align 1
@.str.35 = private unnamed_addr constant [110 x i8] c"generated/home/dtcxzyw/WorkSpace/Projects/compilers/llvm-opt-benchmark/bench/c3c/c3c/src/compiler/sema_expr.c\00", align 1
@.str.37 = private unnamed_addr constant [35 x i8] c"Recursive resolution of expression\00", align 1
@__func__.sema_analyse_expr_lvalue = private unnamed_addr constant [25 x i8] c"sema_analyse_expr_lvalue\00", align 1
@.str.137 = private unnamed_addr constant [76 x i8] c"'%s' was not yet initialized to any value, assign a value to it before use.\00", align 1

; Function Attrs: nounwind uwtable
define dso_local zeroext i1 @sema_analyse_expr(ptr noundef %0, ptr noundef %1) #0 {
  %3 = alloca ptr, align 8
  %4 = alloca ptr, align 8
  store ptr %0, ptr %3, align 8
  store ptr %1, ptr %4, align 8
  %5 = load ptr, ptr %3, align 8
  %6 = load ptr, ptr %4, align 8
  %7 = call zeroext i1 @sema_analyse_expr_lvalue(ptr noundef %5, ptr noundef %6)
  br i1 %7, label %8, label %12

8:                                                ; preds = %2
  %9 = load ptr, ptr %3, align 8
  %10 = load ptr, ptr %4, align 8
  %11 = call zeroext i1 @sema_cast_rvalue(ptr noundef %9, ptr noundef %10)
  br label %12

12:                                               ; preds = %8, %2
  %13 = phi i1 [ false, %2 ], [ %11, %8 ]
  ret i1 %13
}

; Function Attrs: nounwind uwtable
define internal zeroext i1 @sema_cast_ct_ident_rvalue(ptr noundef %0, ptr noundef %1) #0 {
  %3 = alloca ptr, align 8
  %4 = alloca ptr, align 8
  %5 = alloca %union.SourceSpan, align 8
  %6 = alloca i1, align 1
  %7 = alloca ptr, align 8
  %8 = alloca ptr, align 8
  %9 = alloca ptr, align 8
  %10 = alloca ptr, align 8
  store ptr %0, ptr %7, align 8
  store ptr %1, ptr %8, align 8
  %11 = load ptr, ptr %8, align 8
  %12 = getelementptr inbounds %struct.Expr_, ptr %11, i32 0, i32 3
  %13 = getelementptr inbounds %struct.ExprIdentifierRaw, ptr %12, i32 0, i32 2
  %14 = load ptr, ptr %13, align 8
  store ptr %14, ptr %9, align 8
  %15 = load ptr, ptr %9, align 8
  %16 = getelementptr inbounds %struct.Decl_, ptr %15, i32 0, i32 11
  %17 = getelementptr inbounds %struct.VarDecl_, ptr %16, i32 0, i32 2
  %18 = load ptr, ptr %17, align 8
  %19 = call ptr @copy_expr_single(ptr noundef %18)
  store ptr %19, ptr %10, align 8
  %20 = load ptr, ptr %10, align 8
  %21 = icmp ne ptr %20, null
  br i1 %21, label %30, label %22

22:                                               ; preds = %2
  %23 = load ptr, ptr %8, align 8
  %24 = getelementptr inbounds %struct.Expr_, ptr %23, i32 0, i32 1
  %25 = load ptr, ptr %9, align 8
  %26 = getelementptr inbounds %struct.Decl_, ptr %25, i32 0, i32 0
  %27 = load ptr, ptr %26, align 8
  %28 = getelementptr inbounds %union.SourceSpan, ptr %24, i32 0, i32 0
  %29 = load i64, ptr %28, align 8
  call void (i64, ptr, ...) @sema_error_at(i64 %29, ptr noundef @.str.137, ptr noundef %27)
  store i1 false, ptr %6, align 1
  br label %44

30:                                               ; preds = %2
  %31 = load ptr, ptr %7, align 8
  %32 = load ptr, ptr %10, align 8
  %33 = call zeroext i1 @sema_analyse_expr(ptr noundef %31, ptr noundef %32)
  br i1 %33, label %35, label %34

34:                                               ; preds = %30
  store i1 false, ptr %6, align 1
  br label %44

35:                                               ; preds = %30
  %36 = load ptr, ptr %8, align 8
  %37 = load ptr, ptr %10, align 8
  store ptr %36, ptr %3, align 8
  store ptr %37, ptr %4, align 8
  %38 = load ptr, ptr %3, align 8
  %39 = getelementptr inbounds %struct.Expr_, ptr %38, i32 0, i32 1
  call void @llvm.memcpy.p0.p0.i64(ptr align 8 %5, ptr align 8 %39, i64 8, i1 false)
  %40 = load ptr, ptr %3, align 8
  %41 = load ptr, ptr %4, align 8
  call void @llvm.memcpy.p0.p0.i64(ptr align 8 %40, ptr align 8 %41, i64 56, i1 false)
  %42 = load ptr, ptr %3, align 8
  %43 = getelementptr inbounds %struct.Expr_, ptr %42, i32 0, i32 1
  call void @llvm.memcpy.p0.p0.i64(ptr align 8 %43, ptr align 8 %5, i64 8, i1 false)
  store i1 true, ptr %6, align 1
  br label %44

44:                                               ; preds = %35, %34, %22
  %45 = load i1, ptr %6, align 1
  ret i1 %45
}

; Function Attrs: nounwind uwtable
define dso_local zeroext i1 @sema_analyse_expr_lvalue(ptr noundef %0, ptr noundef %1) #0 {
  %3 = alloca ptr, align 8
  %4 = alloca ptr, align 8
  %5 = alloca ptr, align 8
  %6 = alloca i1, align 1
  %7 = alloca ptr, align 8
  %8 = alloca ptr, align 8
  store ptr %0, ptr %7, align 8
  store ptr %1, ptr %8, align 8
  %9 = load ptr, ptr %8, align 8
  %10 = getelementptr inbounds %struct.Expr_, ptr %9, i32 0, i32 2
  %11 = load i16, ptr %10, align 8
  %12 = lshr i16 %11, 8
  %13 = and i16 %12, 15
  %14 = zext i16 %13 to i32
  switch i32 %14, label %69 [
    i32 0, label %15
    i32 1, label %41
    i32 2, label %56
  ]

15:                                               ; preds = %2
  %16 = load ptr, ptr %8, align 8
  %17 = getelementptr inbounds %struct.Expr_, ptr %16, i32 0, i32 2
  %18 = load i16, ptr %17, align 8
  %19 = and i16 %18, -3841
  %20 = or i16 %19, 256
  store i16 %20, ptr %17, align 8
  %21 = load ptr, ptr %7, align 8
  %22 = load ptr, ptr %8, align 8
  %23 = call zeroext i1 @sema_analyse_expr_dispatch(ptr noundef %21, ptr noundef %22)
  br i1 %23, label %35, label %24

24:                                               ; preds = %15
  %25 = load ptr, ptr %8, align 8
  store ptr %25, ptr %4, align 8
  %26 = load ptr, ptr %4, align 8
  %27 = getelementptr inbounds %struct.Expr_, ptr %26, i32 0, i32 2
  %28 = load i16, ptr %27, align 8
  %29 = and i16 %28, -256
  store i16 %29, ptr %27, align 8
  %30 = load ptr, ptr %4, align 8
  %31 = getelementptr inbounds %struct.Expr_, ptr %30, i32 0, i32 2
  %32 = load i16, ptr %31, align 8
  %33 = and i16 %32, -3841
  %34 = or i16 %33, 512
  store i16 %34, ptr %31, align 8
  store i1 false, ptr %6, align 1
  br label %72

35:                                               ; preds = %15
  %36 = load ptr, ptr %8, align 8
  %37 = getelementptr inbounds %struct.Expr_, ptr %36, i32 0, i32 2
  %38 = load i16, ptr %37, align 8
  %39 = and i16 %38, -3841
  %40 = or i16 %39, 512
  store i16 %40, ptr %37, align 8
  store i1 true, ptr %6, align 1
  br label %72

41:                                               ; preds = %2
  %42 = load ptr, ptr %8, align 8
  %43 = getelementptr inbounds %struct.Expr_, ptr %42, i32 0, i32 1
  %44 = getelementptr inbounds %union.SourceSpan, ptr %43, i32 0, i32 0
  %45 = load i64, ptr %44, align 8
  call void (i64, ptr, ...) @sema_error_at(i64 %45, ptr noundef @.str.37)
  %46 = load ptr, ptr %8, align 8
  store ptr %46, ptr %5, align 8
  %47 = load ptr, ptr %5, align 8
  %48 = getelementptr inbounds %struct.Expr_, ptr %47, i32 0, i32 2
  %49 = load i16, ptr %48, align 8
  %50 = and i16 %49, -256
  store i16 %50, ptr %48, align 8
  %51 = load ptr, ptr %5, align 8
  %52 = getelementptr inbounds %struct.Expr_, ptr %51, i32 0, i32 2
  %53 = load i16, ptr %52, align 8
  %54 = and i16 %53, -3841
  %55 = or i16 %54, 512
  store i16 %55, ptr %52, align 8
  store i1 false, ptr %6, align 1
  br label %72

56:                                               ; preds = %2
  %57 = load ptr, ptr %8, align 8
  store ptr %57, ptr %3, align 8
  %58 = load ptr, ptr %3, align 8
  %59 = icmp eq ptr %58, null
  br i1 %59, label %67, label %60

60:                                               ; preds = %56
  %61 = load ptr, ptr %3, align 8
  %62 = getelementptr inbounds %struct.Expr_, ptr %61, i32 0, i32 2
  %63 = load i16, ptr %62, align 8
  %64 = and i16 %63, 255
  %65 = zext i16 %64 to i32
  %66 = icmp ne i32 %65, 0
  br label %67

67:                                               ; preds = %60, %56
  %68 = phi i1 [ true, %56 ], [ %66, %60 ]
  store i1 %68, ptr %6, align 1
  br label %72

69:                                               ; preds = %2
  br label %70

70:                                               ; preds = %69
  call void (ptr, ...) @error_exit(ptr noundef @.str.33, ptr noundef @.str.34, ptr noundef @__func__.sema_analyse_expr_lvalue, ptr noundef @.str.35, i32 noundef 8634) #6
  unreachable

71:                                               ; No predecessors!
  br label %72

72:                                               ; preds = %71, %67, %41, %35, %24
  %73 = load i1, ptr %6, align 1
  ret i1 %73
}

; Function Attrs: nounwind uwtable
define dso_local zeroext i1 @sema_analyse_expr_lvalue_fold_const(ptr noundef %0, ptr noundef %1) #0 {
  %3 = alloca i1, align 1
  %4 = alloca ptr, align 8
  %5 = alloca ptr, align 8
  store ptr %0, ptr %4, align 8
  store ptr %1, ptr %5, align 8
  %6 = load ptr, ptr %4, align 8
  %7 = load ptr, ptr %5, align 8
  %8 = call zeroext i1 @sema_analyse_expr_lvalue(ptr noundef %6, ptr noundef %7)
  br i1 %8, label %10, label %9

9:                                                ; preds = %2
  store i1 false, ptr %3, align 1
  br label %24

10:                                               ; preds = %2
  %11 = load ptr, ptr %5, align 8
  %12 = getelementptr inbounds %struct.Expr_, ptr %11, i32 0, i32 2
  %13 = load i16, ptr %12, align 8
  %14 = and i16 %13, 255
  %15 = zext i16 %14 to i32
  %16 = icmp eq i32 %15, 22
  br i1 %16, label %17, label %23

17:                                               ; preds = %10
  %18 = load ptr, ptr %4, align 8
  %19 = load ptr, ptr %5, align 8
  %20 = call zeroext i1 @sema_cast_ct_ident_rvalue(ptr noundef %18, ptr noundef %19)
  br i1 %20, label %22, label %21

21:                                               ; preds = %17
  store i1 false, ptr %3, align 1
  br label %24

22:                                               ; preds = %17
  br label %23

23:                                               ; preds = %22, %10
  store i1 true, ptr %3, align 1
  br label %24

24:                                               ; preds = %23, %21, %9
  %25 = load i1, ptr %3, align 1
  ret i1 %25
}