; Function Attrs: nounwind uwtable
define dso_local noundef zeroext i1 @sema_analyse_expr_lvalue_fold_const(ptr noundef %0, ptr noundef %1) local_unnamed_addr #0 {
  %3 = getelementptr inbounds i8, ptr %1, i64 16
  %4 = load i16, ptr %3, align 8
  %5 = lshr i16 %4, 8
  %6 = and i16 %5, 15
  switch i16 %6, label %23 [
    i16 0, label %7
    i16 1, label %17
    i16 2, label %sema_analyse_expr_lvalue.exit
  ]

7:                                                ; preds = %2
  %8 = and i16 %4, -3841
  %9 = or disjoint i16 %8, 256
  store i16 %9, ptr %3, align 8
  %10 = tail call fastcc zeroext i1 @sema_analyse_expr_dispatch(ptr noundef %0, ptr noundef nonnull %1)
  %11 = load i16, ptr %3, align 8
  br i1 %10, label %sema_analyse_expr_lvalue.exit.thread10, label %12

12:                                               ; preds = %7
  %13 = and i16 %11, -4096
  %14 = or disjoint i16 %13, 512
  store i16 %14, ptr %3, align 8
  br label %sema_cast_ct_ident_rvalue.exit.thread

sema_analyse_expr_lvalue.exit.thread10:           ; preds = %7
  %15 = and i16 %11, -3841
  %16 = or disjoint i16 %15, 512
  store i16 %16, ptr %3, align 8
  br label %25

17:                                               ; preds = %2
  %18 = getelementptr inbounds i8, ptr %1, i64 8
  %19 = load i64, ptr %18, align 8
  tail call void (i64, ptr, ...) @sema_error_at(i64 %19, ptr noundef nonnull @.str.37) #13
  %20 = load i16, ptr %3, align 8
  %21 = and i16 %20, -4096
  %22 = or disjoint i16 %21, 512
  store i16 %22, ptr %3, align 8
  br label %sema_cast_ct_ident_rvalue.exit.thread

23:                                               ; preds = %2
  tail call void (ptr, ...) @error_exit(ptr noundef nonnull @.str.33, ptr noundef nonnull @.str.34, ptr noundef nonnull @__func__.sema_analyse_expr_lvalue, ptr noundef nonnull @.str.35, i32 noundef 8634) #14
  unreachable

sema_analyse_expr_lvalue.exit:                    ; preds = %2
  %24 = and i16 %4, 255
  %.not = icmp eq i16 %24, 0
  br i1 %.not, label %sema_cast_ct_ident_rvalue.exit.thread, label %25

25:                                               ; preds = %sema_analyse_expr_lvalue.exit.thread10, %sema_analyse_expr_lvalue.exit
  %26 = phi i16 [ %16, %sema_analyse_expr_lvalue.exit.thread10 ], [ %4, %sema_analyse_expr_lvalue.exit ]
  %27 = and i16 %26, 255
  %28 = icmp eq i16 %27, 22
  br i1 %28, label %29, label %sema_cast_ct_ident_rvalue.exit.thread

29:                                               ; preds = %25
  %30 = getelementptr inbounds i8, ptr %1, i64 40
  %31 = load ptr, ptr %30, align 8
  %32 = getelementptr inbounds i8, ptr %31, i64 88
  %33 = load ptr, ptr %32, align 8
  %34 = tail call ptr @copy_expr_single(ptr noundef %33) #13
  %.not.i = icmp eq ptr %34, null
  br i1 %.not.i, label %35, label %39

35:                                               ; preds = %29
  %36 = getelementptr inbounds i8, ptr %1, i64 8
  %37 = load ptr, ptr %31, align 8
  %38 = load i64, ptr %36, align 8
  tail call void (i64, ptr, ...) @sema_error_at(i64 %38, ptr noundef nonnull @.str.137, ptr noundef %37) #13
  br label %sema_cast_ct_ident_rvalue.exit.thread

39:                                               ; preds = %29
  %40 = getelementptr inbounds i8, ptr %34, i64 16
  %41 = load i16, ptr %40, align 8
  %42 = lshr i16 %41, 8
  %43 = and i16 %42, 15
  switch i16 %43, label %60 [
    i16 0, label %44
    i16 1, label %54
    i16 2, label %sema_analyse_expr_lvalue.exit8
  ]

44:                                               ; preds = %39
  %45 = and i16 %41, -3841
  %46 = or disjoint i16 %45, 256
  store i16 %46, ptr %40, align 8
  %47 = tail call fastcc zeroext i1 @sema_analyse_expr_dispatch(ptr noundef %0, ptr noundef nonnull %34)
  %48 = load i16, ptr %40, align 8
  br i1 %47, label %sema_analyse_expr_lvalue.exit8.thread13, label %49

49:                                               ; preds = %44
  %50 = and i16 %48, -4096
  %51 = or disjoint i16 %50, 512
  store i16 %51, ptr %40, align 8
  br label %sema_cast_ct_ident_rvalue.exit.thread

sema_analyse_expr_lvalue.exit8.thread13:          ; preds = %44
  %52 = and i16 %48, -3841
  %53 = or disjoint i16 %52, 512
  store i16 %53, ptr %40, align 8
  br label %sema_analyse_expr.exit

54:                                               ; preds = %39
  %55 = getelementptr inbounds i8, ptr %34, i64 8
  %56 = load i64, ptr %55, align 8
  tail call void (i64, ptr, ...) @sema_error_at(i64 %56, ptr noundef nonnull @.str.37) #13
  %57 = load i16, ptr %40, align 8
  %58 = and i16 %57, -4096
  %59 = or disjoint i16 %58, 512
  store i16 %59, ptr %40, align 8
  br label %sema_cast_ct_ident_rvalue.exit.thread

60:                                               ; preds = %39
  tail call void (ptr, ...) @error_exit(ptr noundef nonnull @.str.33, ptr noundef nonnull @.str.34, ptr noundef nonnull @__func__.sema_analyse_expr_lvalue, ptr noundef nonnull @.str.35, i32 noundef 8634) #14
  unreachable

sema_analyse_expr_lvalue.exit8:                   ; preds = %39
  %61 = and i16 %41, 255
  %.not15 = icmp eq i16 %61, 0
  br i1 %.not15, label %sema_cast_ct_ident_rvalue.exit.thread, label %sema_analyse_expr.exit

sema_analyse_expr.exit:                           ; preds = %sema_analyse_expr_lvalue.exit8.thread13, %sema_analyse_expr_lvalue.exit8
  %62 = tail call fastcc zeroext i1 @sema_cast_rvalue(ptr noundef %0, ptr noundef nonnull %34)
  br i1 %62, label %sema_cast_ct_ident_rvalue.exit, label %sema_cast_ct_ident_rvalue.exit.thread

sema_cast_ct_ident_rvalue.exit:                   ; preds = %sema_analyse_expr.exit
  %63 = getelementptr inbounds i8, ptr %1, i64 8
  %.sroa.0.0.copyload.i = load i64, ptr %63, align 8
  tail call void @llvm.memcpy.p0.p0.i64(ptr noundef nonnull align 8 dereferenceable(56) %1, ptr noundef nonnull align 8 dereferenceable(56) %34, i64 56, i1 false)
  store i64 %.sroa.0.0.copyload.i, ptr %63, align 8
  br label %sema_cast_ct_ident_rvalue.exit.thread

sema_cast_ct_ident_rvalue.exit.thread:            ; preds = %49, %54, %12, %17, %sema_analyse_expr_lvalue.exit8, %sema_analyse_expr.exit, %35, %25, %sema_cast_ct_ident_rvalue.exit, %sema_analyse_expr_lvalue.exit
  %.0 = phi i1 [ false, %sema_analyse_expr_lvalue.exit ], [ true, %sema_cast_ct_ident_rvalue.exit ], [ true, %25 ], [ false, %35 ], [ false, %sema_analyse_expr.exit ], [ false, %sema_analyse_expr_lvalue.exit8 ], [ false, %17 ], [ false, %12 ], [ false, %54 ], [ false, %49 ]
  ret i1 %.0
}